target datalayout = "e-m:e-p270:32:32-p271:32:32-p272:64:64-i64:64-i128:128-f80:128-n8:16:32:64-S128"
target triple = "x86_64-pc-linux-gnu"

%struct.DAUDIO_Info = type { ptr, i32, i32, i32, i32, i32, i32, ptr, i32 }

; Function Attrs: nounwind uwtable
define i64 @Java_com_sun_media_sound_DirectAudioDevice_nOpen(ptr noundef %0, ptr noundef %1, i32 noundef %2, i32 noundef %3, i8 noundef zeroext %4, i32 noundef %5, float noundef %6, i32 noundef %7, i32 noundef %8, i32 noundef %9, i8 noundef zeroext %10, i8 noundef zeroext %11, i32 noundef %12) #0 {
  %14 = alloca ptr, align 8
  %15 = alloca ptr, align 8
  %16 = alloca i32, align 4
  %17 = alloca i32, align 4
  %18 = alloca i8, align 1
  %19 = alloca i32, align 4
  %20 = alloca float, align 4
  %21 = alloca i32, align 4
  %22 = alloca i32, align 4
  %23 = alloca i32, align 4
  %24 = alloca i8, align 1
  %25 = alloca i8, align 1
  %26 = alloca i32, align 4
  %27 = alloca ptr, align 8
  store ptr %0, ptr %14, align 8
  store ptr %1, ptr %15, align 8
  store i32 %2, ptr %16, align 4
  store i32 %3, ptr %17, align 4
  store i8 %4, ptr %18, align 1
  store i32 %5, ptr %19, align 4
  store float %6, ptr %20, align 4
  store i32 %7, ptr %21, align 4
  store i32 %8, ptr %22, align 4
  store i32 %9, ptr %23, align 4
  store i8 %10, ptr %24, align 1
  store i8 %11, ptr %25, align 1
  store i32 %12, ptr %26, align 4
  store ptr null, ptr %27, align 8
  %28 = call noalias ptr @malloc(i64 noundef 48) #4
  store ptr %28, ptr %27, align 8
  %29 = load ptr, ptr %27, align 8
  %30 = icmp eq ptr %29, null
  br i1 %30, label %31, label %32

31:                                               ; preds = %13
  br label %89

32:                                               ; preds = %13
  %33 = load i32, ptr %16, align 4
  %34 = load i32, ptr %17, align 4
  %35 = load i8, ptr %18, align 1
  %36 = zext i8 %35 to i32
  %37 = load i32, ptr %19, align 4
  %38 = load float, ptr %20, align 4
  %39 = load i32, ptr %21, align 4
  %40 = load i32, ptr %22, align 4
  %41 = load i32, ptr %23, align 4
  %42 = load i8, ptr %24, align 1
  %43 = zext i8 %42 to i32
  %44 = load i8, ptr %25, align 1
  %45 = zext i8 %44 to i32
  %46 = load i32, ptr %26, align 4
  %47 = call ptr @DAUDIO_Open(i32 noundef %33, i32 noundef %34, i32 noundef %36, i32 noundef %37, float noundef %38, i32 noundef %39, i32 noundef %40, i32 noundef %41, i32 noundef %43, i32 noundef %45, i32 noundef %46)
  %48 = load ptr, ptr %27, align 8
  %49 = getelementptr inbounds %struct.DAUDIO_Info, ptr %48, i32 0, i32 0
  store ptr %47, ptr %49, align 8
  %50 = load ptr, ptr %27, align 8
  %51 = getelementptr inbounds %struct.DAUDIO_Info, ptr %50, i32 0, i32 0
  %52 = load ptr, ptr %51, align 8
  %53 = icmp ne ptr %52, null
  br i1 %53, label %56, label %54

54:                                               ; preds = %32
  %55 = load ptr, ptr %27, align 8
  call void @free(ptr noundef %55) #5
  store ptr null, ptr %27, align 8
  br label %88

56:                                               ; preds = %32
  %57 = load i32, ptr %19, align 4
  %58 = load ptr, ptr %27, align 8
  %59 = getelementptr inbounds %struct.DAUDIO_Info, ptr %58, i32 0, i32 1
  store i32 %57, ptr %59, align 8
  %60 = load i32, ptr %21, align 4
  %61 = load ptr, ptr %27, align 8
  %62 = getelementptr inbounds %struct.DAUDIO_Info, ptr %61, i32 0, i32 2
  store i32 %60, ptr %62, align 4
  %63 = load i32, ptr %22, align 4
  %64 = load ptr, ptr %27, align 8
  %65 = getelementptr inbounds %struct.DAUDIO_Info, ptr %64, i32 0, i32 3
  store i32 %63, ptr %65, align 8
  %66 = load i32, ptr %23, align 4
  %67 = load ptr, ptr %27, align 8
  %68 = getelementptr inbounds %struct.DAUDIO_Info, ptr %67, i32 0, i32 4
  store i32 %66, ptr %68, align 4
  %69 = load i8, ptr %24, align 1
  %70 = zext i8 %69 to i32
  %71 = load ptr, ptr %27, align 8
  %72 = getelementptr inbounds %struct.DAUDIO_Info, ptr %71, i32 0, i32 5
  store i32 %70, ptr %72, align 8
  %73 = load i8, ptr %25, align 1
  %74 = zext i8 %73 to i32
  %75 = icmp ne i32 %74, 0
  br i1 %75, label %76, label %79

76:                                               ; preds = %56
  %77 = load i32, ptr %21, align 4
  %78 = icmp sgt i32 %77, 8
  br label %79

79:                                               ; preds = %76, %56
  %80 = phi i1 [ false, %56 ], [ %78, %76 ]
  %81 = zext i1 %80 to i32
  %82 = load ptr, ptr %27, align 8
  %83 = getelementptr inbounds %struct.DAUDIO_Info, ptr %82, i32 0, i32 6
  store i32 %81, ptr %83, align 4
  %84 = load ptr, ptr %27, align 8
  %85 = getelementptr inbounds %struct.DAUDIO_Info, ptr %84, i32 0, i32 7
  store ptr null, ptr %85, align 8
  %86 = load ptr, ptr %27, align 8
  %87 = getelementptr inbounds %struct.DAUDIO_Info, ptr %86, i32 0, i32 8
  store i32 0, ptr %87, align 8
  br label %88

88:                                               ; preds = %79, %54
  br label %89

89:                                               ; preds = %88, %31
  %90 = load ptr, ptr %27, align 8
  %91 = ptrtoint ptr %90 to i64
  ret i64 %91
}