; Function Attrs: nounwind uwtable
define noundef i64 @Java_com_sun_media_sound_DirectAudioDevice_nOpen(ptr nocapture noundef readnone %0, ptr nocapture noundef readnone %1, i32 noundef %2, i32 noundef %3, i8 noundef zeroext %4, i32 noundef %5, float noundef %6, i32 noundef %7, i32 noundef %8, i32 noundef %9, i8 noundef zeroext %10, i8 noundef zeroext %11, i32 noundef %12) local_unnamed_addr #2 {
  %14 = tail call noalias dereferenceable_or_null(48) ptr @malloc(i64 noundef 48) #8
  %15 = icmp eq ptr %14, null
  br i1 %15, label %36, label %16

16:                                               ; preds = %13
  %17 = zext i8 %4 to i32
  %18 = zext i8 %10 to i32
  %19 = zext i8 %11 to i32
  %20 = tail call ptr @DAUDIO_Open(i32 noundef %2, i32 noundef %3, i32 noundef %17, i32 noundef %5, float noundef %6, i32 noundef %7, i32 noundef %8, i32 noundef %9, i32 noundef %18, i32 noundef %19, i32 noundef %12) #7
  store ptr %20, ptr %14, align 8
  %.not = icmp eq ptr %20, null
  br i1 %.not, label %21, label %22

21:                                               ; preds = %16
  tail call void @free(ptr noundef nonnull %14) #7
  br label %36

22:                                               ; preds = %16
  %23 = getelementptr inbounds i8, ptr %14, i64 8
  store i32 %5, ptr %23, align 8
  %24 = getelementptr inbounds i8, ptr %14, i64 12
  store i32 %7, ptr %24, align 4
  %25 = getelementptr inbounds i8, ptr %14, i64 16
  store i32 %8, ptr %25, align 8
  %26 = getelementptr inbounds i8, ptr %14, i64 20
  store i32 %9, ptr %26, align 4
  %27 = getelementptr inbounds i8, ptr %14, i64 24
  store i32 %18, ptr %27, align 8
  %28 = icmp ne i8 %11, 0
  %29 = icmp sgt i32 %7, 8
  %30 = and i1 %29, %28
  %31 = zext i1 %30 to i32
  %32 = getelementptr inbounds i8, ptr %14, i64 28
  store i32 %31, ptr %32, align 4
  %33 = getelementptr inbounds i8, ptr %14, i64 32
  store ptr null, ptr %33, align 8
  %34 = getelementptr inbounds i8, ptr %14, i64 40
  store i32 0, ptr %34, align 8
  %35 = ptrtoint ptr %14 to i64
  br label %36

36:                                               ; preds = %21, %22, %13
  %.0 = phi i64 [ 0, %13 ], [ %35, %22 ], [ 0, %21 ]
  ret i64 %.0
}